; ModuleID = '48/377.c'
source_filename = "48/377.c"
target datalayout = "e-m:e-p270:32:32-p271:32:32-p272:64:64-i64:64-f80:128-n8:16:32:64-S128"
target triple = "x86_64-pc-linux-gnu"

@.str = private unnamed_addr constant [6 x i8] c"%d %d\00", align 1
@.str.1 = private unnamed_addr constant [4 x i8] c"%d \00", align 1
@.str.2 = private unnamed_addr constant [3 x i8] c"%d\00", align 1
@.str.3 = private unnamed_addr constant [2 x i8] c"\0A\00", align 1

; Function Attrs: noinline nounwind uwtable
define dso_local i32 @main() #0 {
  %1 = alloca i32, align 4
  %2 = alloca [9 x [9 x i32]], align 16
  %3 = alloca [9 x [9 x i32]], align 16
  %4 = alloca i32, align 4
  %5 = alloca i32, align 4
  %6 = alloca i32, align 4
  %7 = alloca i32, align 4
  %8 = alloca i32, align 4
  %9 = alloca i32, align 4
  %10 = alloca i32, align 4
  store i32 0, i32* %1, align 4
  %11 = bitcast [9 x [9 x i32]]* %2 to i8*
  call void @llvm.memset.p0i8.i64(i8* align 16 %11, i8 0, i64 324, i1 false)
  %12 = bitcast [9 x [9 x i32]]* %3 to i8*
  call void @llvm.memset.p0i8.i64(i8* align 16 %12, i8 0, i64 324, i1 false)
  %13 = call i32 (i8*, ...) @__isoc99_scanf(i8* getelementptr inbounds ([6 x i8], [6 x i8]* @.str, i64 0, i64 0), i32* %4, i32* %5)
  %14 = load i32, i32* %4, align 4
  %15 = getelementptr inbounds [9 x [9 x i32]], [9 x [9 x i32]]* %2, i64 0, i64 4
  %16 = getelementptr inbounds [9 x i32], [9 x i32]* %15, i64 0, i64 4
  store i32 %14, i32* %16, align 16
  %17 = load i32, i32* %4, align 4
  %18 = getelementptr inbounds [9 x [9 x i32]], [9 x [9 x i32]]* %3, i64 0, i64 4
  %19 = getelementptr inbounds [9 x i32], [9 x i32]* %18, i64 0, i64 4
  store i32 %17, i32* %19, align 16
  store i32 0, i32* %8, align 4
  br label %20

20:                                               ; preds = %119, %0
  %21 = load i32, i32* %8, align 4
  %22 = load i32, i32* %5, align 4
  %23 = icmp slt i32 %21, %22
  br i1 %23, label %24, label %122

24:                                               ; preds = %20
  store i32 0, i32* %6, align 4
  br label %25

25:                                               ; preds = %86, %24
  %26 = load i32, i32* %6, align 4
  %27 = icmp slt i32 %26, 9
  br i1 %27, label %28, label %89

28:                                               ; preds = %25
  store i32 0, i32* %7, align 4
  br label %29

29:                                               ; preds = %82, %28
  %30 = load i32, i32* %7, align 4
  %31 = icmp slt i32 %30, 9
  br i1 %31, label %32, label %85

32:                                               ; preds = %29
  %33 = load i32, i32* %6, align 4
  %34 = sext i32 %33 to i64
  %35 = getelementptr inbounds [9 x [9 x i32]], [9 x [9 x i32]]* %3, i64 0, i64 %34
  %36 = load i32, i32* %7, align 4
  %37 = sext i32 %36 to i64
  %38 = getelementptr inbounds [9 x i32], [9 x i32]* %35, i64 0, i64 %37
  %39 = load i32, i32* %38, align 4
  %40 = icmp ne i32 %39, 0
  br i1 %40, label %41, label %81

41:                                               ; preds = %32
  %42 = load i32, i32* %6, align 4
  %43 = sub nsw i32 %42, 1
  store i32 %43, i32* %9, align 4
  br label %44

44:                                               ; preds = %77, %41
  %45 = load i32, i32* %9, align 4
  %46 = load i32, i32* %6, align 4
  %47 = add nsw i32 %46, 1
  %48 = icmp sle i32 %45, %47
  br i1 %48, label %49, label %80

49:                                               ; preds = %44
  %50 = load i32, i32* %7, align 4
  %51 = sub nsw i32 %50, 1
  store i32 %51, i32* %10, align 4
  br label %52

52:                                               ; preds = %73, %49
  %53 = load i32, i32* %10, align 4
  %54 = load i32, i32* %7, align 4
  %55 = add nsw i32 %54, 1
  %56 = icmp sle i32 %53, %55
  br i1 %56, label %57, label %76

57:                                               ; preds = %52
  %58 = load i32, i32* %6, align 4
  %59 = sext i32 %58 to i64
  %60 = getelementptr inbounds [9 x [9 x i32]], [9 x [9 x i32]]* %3, i64 0, i64 %59
  %61 = load i32, i32* %7, align 4
  %62 = sext i32 %61 to i64
  %63 = getelementptr inbounds [9 x i32], [9 x i32]* %60, i64 0, i64 %62
  %64 = load i32, i32* %63, align 4
  %65 = load i32, i32* %9, align 4
  %66 = sext i32 %65 to i64
  %67 = getelementptr inbounds [9 x [9 x i32]], [9 x [9 x i32]]* %2, i64 0, i64 %66
  %68 = load i32, i32* %10, align 4
  %69 = sext i32 %68 to i64
  %70 = getelementptr inbounds [9 x i32], [9 x i32]* %67, i64 0, i64 %69
  %71 = load i32, i32* %70, align 4
  %72 = add nsw i32 %71, %64
  store i32 %72, i32* %70, align 4
  br label %73

73:                                               ; preds = %57
  %74 = load i32, i32* %10, align 4
  %75 = add nsw i32 %74, 1
  store i32 %75, i32* %10, align 4
  br label %52

76:                                               ; preds = %52
  br label %77

77:                                               ; preds = %76
  %78 = load i32, i32* %9, align 4
  %79 = add nsw i32 %78, 1
  store i32 %79, i32* %9, align 4
  br label %44

80:                                               ; preds = %44
  br label %81

81:                                               ; preds = %80, %32
  br label %82

82:                                               ; preds = %81
  %83 = load i32, i32* %7, align 4
  %84 = add nsw i32 %83, 1
  store i32 %84, i32* %7, align 4
  br label %29

85:                                               ; preds = %29
  br label %86

86:                                               ; preds = %85
  %87 = load i32, i32* %6, align 4
  %88 = add nsw i32 %87, 1
  store i32 %88, i32* %6, align 4
  br label %25

89:                                               ; preds = %25
  store i32 0, i32* %6, align 4
  br label %90

90:                                               ; preds = %115, %89
  %91 = load i32, i32* %6, align 4
  %92 = icmp slt i32 %91, 9
  br i1 %92, label %93, label %118

93:                                               ; preds = %90
  store i32 0, i32* %7, align 4
  br label %94

94:                                               ; preds = %111, %93
  %95 = load i32, i32* %7, align 4
  %96 = icmp slt i32 %95, 9
  br i1 %96, label %97, label %114

97:                                               ; preds = %94
  %98 = load i32, i32* %6, align 4
  %99 = sext i32 %98 to i64
  %100 = getelementptr inbounds [9 x [9 x i32]], [9 x [9 x i32]]* %2, i64 0, i64 %99
  %101 = load i32, i32* %7, align 4
  %102 = sext i32 %101 to i64
  %103 = getelementptr inbounds [9 x i32], [9 x i32]* %100, i64 0, i64 %102
  %104 = load i32, i32* %103, align 4
  %105 = load i32, i32* %6, align 4
  %106 = sext i32 %105 to i64
  %107 = getelementptr inbounds [9 x [9 x i32]], [9 x [9 x i32]]* %3, i64 0, i64 %106
  %108 = load i32, i32* %7, align 4
  %109 = sext i32 %108 to i64
  %110 = getelementptr inbounds [9 x i32], [9 x i32]* %107, i64 0, i64 %109
  store i32 %104, i32* %110, align 4
  br label %111

111:                                              ; preds = %97
  %112 = load i32, i32* %7, align 4
  %113 = add nsw i32 %112, 1
  store i32 %113, i32* %7, align 4
  br label %94

114:                                              ; preds = %94
  br label %115

115:                                              ; preds = %114
  %116 = load i32, i32* %6, align 4
  %117 = add nsw i32 %116, 1
  store i32 %117, i32* %6, align 4
  br label %90

118:                                              ; preds = %90
  br label %119

119:                                              ; preds = %118
  %120 = load i32, i32* %8, align 4
  %121 = add nsw i32 %120, 1
  store i32 %121, i32* %8, align 4
  br label %20

122:                                              ; preds = %20
  store i32 0, i32* %6, align 4
  br label %123

123:                                              ; preds = %150, %122
  %124 = load i32, i32* %6, align 4
  %125 = icmp slt i32 %124, 9
  br i1 %125, label %126, label %153

126:                                              ; preds = %123
  store i32 0, i32* %7, align 4
  br label %127

127:                                              ; preds = %139, %126
  %128 = load i32, i32* %7, align 4
  %129 = icmp slt i32 %128, 8
  br i1 %129, label %130, label %142

130:                                              ; preds = %127
  %131 = load i32, i32* %6, align 4
  %132 = sext i32 %131 to i64
  %133 = getelementptr inbounds [9 x [9 x i32]], [9 x [9 x i32]]* %2, i64 0, i64 %132
  %134 = load i32, i32* %7, align 4
  %135 = sext i32 %134 to i64
  %136 = getelementptr inbounds [9 x i32], [9 x i32]* %133, i64 0, i64 %135
  %137 = load i32, i32* %136, align 4
  %138 = call i32 (i8*, ...) @printf(i8* getelementptr inbounds ([4 x i8], [4 x i8]* @.str.1, i64 0, i64 0), i32 %137)
  br label %139

139:                                              ; preds = %130
  %140 = load i32, i32* %7, align 4
  %141 = add nsw i32 %140, 1
  store i32 %141, i32* %7, align 4
  br label %127

142:                                              ; preds = %127
  %143 = load i32, i32* %6, align 4
  %144 = sext i32 %143 to i64
  %145 = getelementptr inbounds [9 x [9 x i32]], [9 x [9 x i32]]* %2, i64 0, i64 %144
  %146 = getelementptr inbounds [9 x i32], [9 x i32]* %145, i64 0, i64 8
  %147 = load i32, i32* %146, align 4
  %148 = call i32 (i8*, ...) @printf(i8* getelementptr inbounds ([3 x i8], [3 x i8]* @.str.2, i64 0, i64 0), i32 %147)
  %149 = call i32 (i8*, ...) @printf(i8* getelementptr inbounds ([2 x i8], [2 x i8]* @.str.3, i64 0, i64 0))
  br label %150

150:                                              ; preds = %142
  %151 = load i32, i32* %6, align 4
  %152 = add nsw i32 %151, 1
  store i32 %152, i32* %6, align 4
  br label %123

153:                                              ; preds = %123
  ret i32 0
}

; Function Attrs: argmemonly nounwind willreturn
declare void @llvm.memset.p0i8.i64(i8* nocapture writeonly, i8, i64, i1 immarg) #1

declare dso_local i32 @__isoc99_scanf(i8*, ...) #2

declare dso_local i32 @printf(i8*, ...) #2


!llvm.module.flags = !{!0}
!llvm.ident = !{!1}

!0 = !{i32 1, !"wchar_size", i32 4}
!1 = !{!"clang version 10.0.0-4ubuntu1 "}
